; Function Attrs: mustprogress uwtable
define hidden noundef double @_ZN5osgeo4proj9operation11getAccuracyERKSt6vectorIN7dropbox6oxygen2nnISt10shared_ptrINS1_19CoordinateOperationEEEESaIS9_EE(ptr noundef nonnull readonly align 8 captures(none) dereferenceable(24) %0) local_unnamed_addr #0 {
  %2 = load ptr, ptr %0, align 8, !tbaa !115
  %3 = getelementptr inbounds nuw i8, ptr %0, i64 8
  %4 = load ptr, ptr %3, align 8, !tbaa !115
  %.not26 = icmp eq ptr %2, %4
  br i1 %.not26, label %._crit_edge, label %.lr.ph

.lr.ph:                                           ; preds = %1, %7
  %.01428 = phi double [ %9, %7 ], [ -1.000000e+00, %1 ]
  %.sroa.021.027 = phi ptr [ %10, %7 ], [ %2, %1 ]
  %5 = tail call noundef double @_ZN5osgeo4proj9operation11getAccuracyERKN7dropbox6oxygen2nnISt10shared_ptrINS1_19CoordinateOperationEEEE(ptr noundef nonnull align 8 dereferenceable(16) %.sroa.021.027)
  %6 = fcmp uge double %5, 0.000000e+00
  br i1 %6, label %7, label %._crit_edge

7:                                                ; preds = %.lr.ph
  %8 = fcmp olt double %.01428, 0.000000e+00
  %.317 = select i1 %8, double 0.000000e+00, double %.01428
  %9 = fadd double %.317, %5
  %10 = getelementptr inbounds nuw i8, ptr %.sroa.021.027, i64 16
  %.not = icmp eq ptr %10, %4
  br i1 %.not, label %._crit_edge, label %.lr.ph

._crit_edge:                                      ; preds = %7, %.lr.ph, %1
  %.3 = phi double [ -1.000000e+00, %1 ], [ -1.000000e+00, %.lr.ph ], [ %9, %7 ]
  ret double %.3
}